CCS PCM C Compiler, Version 4.114, 93465053               16-dic-16 22:03

               Filename: F:\nuevo\Clase5\Ejemplos\Ejemplo2\Codigo\Ejemplo2.lst

               ROM used: 305 words (4%)
                         Largest free fragment is 2048
               RAM used: 9 (2%) at main() level
                         18 (5%) worst case
               Stack:    1 locations

*
0000:  MOVLW  00
0001:  MOVWF  0A
0002:  GOTO   0B9
0003:  NOP
.................... #include <16f877a.h> 
.................... //////// Standard Header file for the PIC16F877A device //////////////// 
.................... #device PIC16F877A 
.................... #list 
....................  
.................... #device  adc=10 
.................... #fuses   XT 
.................... #use     delay(clock=4M) 
.................... #use     rs232(BAUD = 9600,XMIT = PIN_C6, RCV = PIN_C7)    
....................  
.................... void main(){ 
00B9:  CLRF   04
00BA:  BCF    03.7
00BB:  MOVLW  1F
00BC:  ANDWF  03,F
00BD:  MOVLW  19
00BE:  BSF    03.5
00BF:  MOVWF  19
00C0:  MOVLW  A6
00C1:  MOVWF  18
00C2:  MOVLW  90
00C3:  BCF    03.5
00C4:  MOVWF  18
00C5:  BSF    03.5
00C6:  BSF    1F.0
00C7:  BSF    1F.1
00C8:  BSF    1F.2
00C9:  BCF    1F.3
00CA:  MOVLW  07
00CB:  MOVWF  1C
....................    int16 adc1,adc2; 
....................     
....................    setup_adc(  ADC_CLOCK_INTERNAL ); 
00CC:  BCF    1F.6
00CD:  BCF    03.5
00CE:  BSF    1F.6
00CF:  BSF    1F.7
00D0:  BSF    03.5
00D1:  BSF    1F.7
00D2:  BCF    03.5
00D3:  BSF    1F.0
....................    setup_adc_ports(  AN0_AN1_AN3  );    
00D4:  BSF    03.5
00D5:  BCF    1F.0
00D6:  BCF    1F.1
00D7:  BSF    1F.2
00D8:  BCF    1F.3
....................  
....................    for(;;){ 
....................       set_adc_channel( 0 ); 
00D9:  MOVLW  00
00DA:  MOVWF  78
00DB:  BCF    03.5
00DC:  MOVF   1F,W
00DD:  ANDLW  C7
00DE:  IORWF  78,W
00DF:  MOVWF  1F
....................       delay_us(20); 
00E0:  MOVLW  06
00E1:  MOVWF  77
00E2:  DECFSZ 77,F
00E3:  GOTO   0E2
00E4:  NOP
....................       adc1 = read_adc();   
00E5:  BSF    1F.2
00E6:  BTFSC  1F.2
00E7:  GOTO   0E6
00E8:  BSF    03.5
00E9:  MOVF   1E,W
00EA:  BCF    03.5
00EB:  MOVWF  21
00EC:  MOVF   1E,W
00ED:  MOVWF  22
....................        
....................       set_adc_channel( 1 ); 
00EE:  MOVLW  08
00EF:  MOVWF  78
00F0:  MOVF   1F,W
00F1:  ANDLW  C7
00F2:  IORWF  78,W
00F3:  MOVWF  1F
....................       delay_us(20); 
00F4:  MOVLW  06
00F5:  MOVWF  77
00F6:  DECFSZ 77,F
00F7:  GOTO   0F6
00F8:  NOP
....................       adc2 = read_adc();  
00F9:  BSF    1F.2
00FA:  BTFSC  1F.2
00FB:  GOTO   0FA
00FC:  BSF    03.5
00FD:  MOVF   1E,W
00FE:  BCF    03.5
00FF:  MOVWF  23
0100:  MOVF   1E,W
0101:  MOVWF  24
....................        
....................       printf("x:%Lu - y:%Lu \r\n",adc1,adc2); 
0102:  MOVLW  78
0103:  BTFSS  0C.4
0104:  GOTO   103
0105:  MOVWF  19
0106:  MOVLW  3A
0107:  BTFSS  0C.4
0108:  GOTO   107
0109:  MOVWF  19
010A:  MOVLW  10
010B:  MOVWF  04
010C:  MOVF   22,W
010D:  MOVWF  26
010E:  MOVF   21,W
010F:  MOVWF  25
0110:  CALL   00D
0111:  MOVLW  06
0112:  BSF    03.6
0113:  MOVWF  0D
0114:  MOVLW  00
0115:  MOVWF  0F
0116:  BSF    03.0
0117:  MOVLW  05
0118:  BCF    03.6
0119:  MOVWF  25
011A:  GOTO   066
011B:  MOVLW  10
011C:  MOVWF  04
011D:  MOVF   24,W
011E:  MOVWF  26
011F:  MOVF   23,W
0120:  MOVWF  25
0121:  CALL   00D
0122:  MOVLW  20
0123:  BTFSS  0C.4
0124:  GOTO   123
0125:  MOVWF  19
0126:  MOVLW  0D
0127:  BTFSS  0C.4
0128:  GOTO   127
0129:  MOVWF  19
012A:  MOVLW  0A
012B:  BTFSS  0C.4
012C:  GOTO   12B
012D:  MOVWF  19
....................  
....................    } 
012E:  BSF    03.5
012F:  GOTO   0D9
.................... } 
....................  
....................  
0130:  SLEEP

Configuration Fuses:
   Word  1: 3F71   XT NOWDT PUT BROWNOUT NOLVP NOCPD NOWRT NODEBUG NOPROTECT
